target datalayout = "e-m:e-p270:32:32-p271:32:32-p272:64:64-i64:64-i128:128-f80:128-n8:16:32:64-S128"
target triple = "x86_64-pc-linux-gnu"

@ett_s7comm_szl_0131_0010_funk_1 = internal global i32 0, align 4
@ett_s7comm_szl_0131_0010_ber_meld_1 = internal global i32 0, align 4
@ett_s7comm_szl_0131_0010_ber_zus_1 = internal global i32 0, align 4
@ett_s7comm_szl_0131_0010_typ_zus_1 = internal global i32 0, align 4
@hf_s7comm_szl_0131_0010_index = internal global i32 0, align 4
@hf_s7comm_szl_0131_0010_funk_1 = internal global i32 0, align 4
@hf_s7comm_szl_0131_0010_funk_2 = internal global i32 0, align 4
@hf_s7comm_szl_0131_0010_ber_meld_1 = internal global i32 0, align 4
@hf_s7comm_szl_0131_0010_ber_meld_2 = internal global i32 0, align 4
@hf_s7comm_szl_0131_0010_ber_zus_1 = internal global i32 0, align 4
@hf_s7comm_szl_0131_0010_ber_zus_2 = internal global i32 0, align 4
@hf_s7comm_szl_0131_0010_typ_zus_1 = internal global i32 0, align 4
@hf_s7comm_szl_0131_0010_typ_zus_2 = internal global i32 0, align 4
@hf_s7comm_szl_0131_0010_maxanz_arch = internal global i32 0, align 4
@hf_s7comm_szl_0131_0010_res = internal global i32 0, align 4

; Function Attrs: null_pointer_is_valid sspstrong uwtable
define internal i32 @s7comm_decode_szl_id_0131_idx_0010(ptr noundef %0, ptr noundef %1, i32 noundef %2) #0 {
  %4 = alloca ptr, align 8
  %5 = alloca ptr, align 8
  %6 = alloca i32, align 4
  store ptr %0, ptr %4, align 8
  store ptr %1, ptr %5, align 8
  store i32 %2, ptr %6, align 4
  %7 = load ptr, ptr %5, align 8
  %8 = load i32, ptr @hf_s7comm_szl_0131_0010_index, align 4
  %9 = load ptr, ptr %4, align 8
  %10 = load i32, ptr %6, align 4
  %11 = call ptr @proto_tree_add_item(ptr noundef %7, i32 noundef %8, ptr noundef %9, i32 noundef %10, i32 noundef 2, i32 noundef 0)
  %12 = load i32, ptr %6, align 4
  %13 = add i32 %12, 2
  store i32 %13, ptr %6, align 4
  %14 = load ptr, ptr %5, align 8
  %15 = load ptr, ptr %4, align 8
  %16 = load i32, ptr %6, align 4
  %17 = load i32, ptr @hf_s7comm_szl_0131_0010_funk_1, align 4
  %18 = load i32, ptr @ett_s7comm_szl_0131_0010_funk_1, align 4
  %19 = call ptr @proto_tree_add_bitmask(ptr noundef %14, ptr noundef %15, i32 noundef %16, i32 noundef %17, i32 noundef %18, ptr noundef @s7comm_szl_0131_0010_funk_1_fields, i32 noundef 0)
  %20 = load i32, ptr %6, align 4
  %21 = add i32 %20, 1
  store i32 %21, ptr %6, align 4
  %22 = load ptr, ptr %5, align 8
  %23 = load i32, ptr @hf_s7comm_szl_0131_0010_funk_2, align 4
  %24 = load ptr, ptr %4, align 8
  %25 = load i32, ptr %6, align 4
  %26 = call ptr @proto_tree_add_item(ptr noundef %22, i32 noundef %23, ptr noundef %24, i32 noundef %25, i32 noundef 1, i32 noundef 0)
  %27 = load i32, ptr %6, align 4
  %28 = add i32 %27, 1
  store i32 %28, ptr %6, align 4
  %29 = load ptr, ptr %5, align 8
  %30 = load ptr, ptr %4, align 8
  %31 = load i32, ptr %6, align 4
  %32 = load i32, ptr @hf_s7comm_szl_0131_0010_ber_meld_1, align 4
  %33 = load i32, ptr @ett_s7comm_szl_0131_0010_ber_meld_1, align 4
  %34 = call ptr @proto_tree_add_bitmask(ptr noundef %29, ptr noundef %30, i32 noundef %31, i32 noundef %32, i32 noundef %33, ptr noundef @s7comm_szl_0131_0010_ber_meld_1_fields, i32 noundef 0)
  %35 = load i32, ptr %6, align 4
  %36 = add i32 %35, 1
  store i32 %36, ptr %6, align 4
  %37 = load ptr, ptr %5, align 8
  %38 = load i32, ptr @hf_s7comm_szl_0131_0010_ber_meld_2, align 4
  %39 = load ptr, ptr %4, align 8
  %40 = load i32, ptr %6, align 4
  %41 = call ptr @proto_tree_add_item(ptr noundef %37, i32 noundef %38, ptr noundef %39, i32 noundef %40, i32 noundef 1, i32 noundef 0)
  %42 = load i32, ptr %6, align 4
  %43 = add i32 %42, 1
  store i32 %43, ptr %6, align 4
  %44 = load ptr, ptr %5, align 8
  %45 = load ptr, ptr %4, align 8
  %46 = load i32, ptr %6, align 4
  %47 = load i32, ptr @hf_s7comm_szl_0131_0010_ber_zus_1, align 4
  %48 = load i32, ptr @ett_s7comm_szl_0131_0010_ber_zus_1, align 4
  %49 = call ptr @proto_tree_add_bitmask(ptr noundef %44, ptr noundef %45, i32 noundef %46, i32 noundef %47, i32 noundef %48, ptr noundef @s7comm_szl_0131_0010_ber_zus_1_fields, i32 noundef 0)
  %50 = load i32, ptr %6, align 4
  %51 = add i32 %50, 1
  store i32 %51, ptr %6, align 4
  %52 = load ptr, ptr %5, align 8
  %53 = load i32, ptr @hf_s7comm_szl_0131_0010_ber_zus_2, align 4
  %54 = load ptr, ptr %4, align 8
  %55 = load i32, ptr %6, align 4
  %56 = call ptr @proto_tree_add_item(ptr noundef %52, i32 noundef %53, ptr noundef %54, i32 noundef %55, i32 noundef 1, i32 noundef 0)
  %57 = load i32, ptr %6, align 4
  %58 = add i32 %57, 1
  store i32 %58, ptr %6, align 4
  %59 = load ptr, ptr %5, align 8
  %60 = load ptr, ptr %4, align 8
  %61 = load i32, ptr %6, align 4
  %62 = load i32, ptr @hf_s7comm_szl_0131_0010_typ_zus_1, align 4
  %63 = load i32, ptr @ett_s7comm_szl_0131_0010_typ_zus_1, align 4
  %64 = call ptr @proto_tree_add_bitmask(ptr noundef %59, ptr noundef %60, i32 noundef %61, i32 noundef %62, i32 noundef %63, ptr noundef @s7comm_szl_0131_0010_typ_zus_1_fields, i32 noundef 0)
  %65 = load i32, ptr %6, align 4
  %66 = add i32 %65, 1
  store i32 %66, ptr %6, align 4
  %67 = load ptr, ptr %5, align 8
  %68 = load i32, ptr @hf_s7comm_szl_0131_0010_typ_zus_2, align 4
  %69 = load ptr, ptr %4, align 8
  %70 = load i32, ptr %6, align 4
  %71 = call ptr @proto_tree_add_item(ptr noundef %67, i32 noundef %68, ptr noundef %69, i32 noundef %70, i32 noundef 1, i32 noundef 0)
  %72 = load i32, ptr %6, align 4
  %73 = add i32 %72, 1
  store i32 %73, ptr %6, align 4
  %74 = load ptr, ptr %5, align 8
  %75 = load i32, ptr @hf_s7comm_szl_0131_0010_maxanz_arch, align 4
  %76 = load ptr, ptr %4, align 8
  %77 = load i32, ptr %6, align 4
  %78 = call ptr @proto_tree_add_item(ptr noundef %74, i32 noundef %75, ptr noundef %76, i32 noundef %77, i32 noundef 2, i32 noundef 0)
  %79 = load i32, ptr %6, align 4
  %80 = add i32 %79, 2
  store i32 %80, ptr %6, align 4
  %81 = load ptr, ptr %5, align 8
  %82 = load i32, ptr @hf_s7comm_szl_0131_0010_res, align 4
  %83 = load ptr, ptr %4, align 8
  %84 = load i32, ptr %6, align 4
  %85 = call ptr @proto_tree_add_item(ptr noundef %81, i32 noundef %82, ptr noundef %83, i32 noundef %84, i32 noundef 28, i32 noundef 0)
  %86 = load i32, ptr %6, align 4
  %87 = add i32 %86, 28
  store i32 %87, ptr %6, align 4
  %88 = load i32, ptr %6, align 4
  ret i32 %88
}