; Function Attrs: null_pointer_is_valid sspstrong uwtable
define internal fastcc noundef i32 @s7comm_decode_szl_id_0131_idx_0010(ptr noundef %0, ptr noundef %1, i32 noundef %2) unnamed_addr #0 {
  %4 = load i32, ptr @hf_s7comm_szl_0131_0010_index, align 4
  %5 = tail call ptr @proto_tree_add_item(ptr noundef %1, i32 noundef %4, ptr noundef %0, i32 noundef %2, i32 noundef 2, i32 noundef 0)
  %6 = add i32 %2, 2
  %7 = load i32, ptr @hf_s7comm_szl_0131_0010_funk_1, align 4
  %8 = load i32, ptr @ett_s7comm_szl_0131_0010_funk_1, align 4
  %9 = tail call ptr @proto_tree_add_bitmask(ptr noundef %1, ptr noundef %0, i32 noundef %6, i32 noundef %7, i32 noundef %8, ptr noundef nonnull @s7comm_szl_0131_0010_funk_1_fields, i32 noundef 0)
  %10 = add i32 %2, 3
  %11 = load i32, ptr @hf_s7comm_szl_0131_0010_funk_2, align 4
  %12 = tail call ptr @proto_tree_add_item(ptr noundef %1, i32 noundef %11, ptr noundef %0, i32 noundef %10, i32 noundef 1, i32 noundef 0)
  %13 = add i32 %2, 4
  %14 = load i32, ptr @hf_s7comm_szl_0131_0010_ber_meld_1, align 4
  %15 = load i32, ptr @ett_s7comm_szl_0131_0010_ber_meld_1, align 4
  %16 = tail call ptr @proto_tree_add_bitmask(ptr noundef %1, ptr noundef %0, i32 noundef %13, i32 noundef %14, i32 noundef %15, ptr noundef nonnull @s7comm_szl_0131_0010_ber_meld_1_fields, i32 noundef 0)
  %17 = add i32 %2, 5
  %18 = load i32, ptr @hf_s7comm_szl_0131_0010_ber_meld_2, align 4
  %19 = tail call ptr @proto_tree_add_item(ptr noundef %1, i32 noundef %18, ptr noundef %0, i32 noundef %17, i32 noundef 1, i32 noundef 0)
  %20 = add i32 %2, 6
  %21 = load i32, ptr @hf_s7comm_szl_0131_0010_ber_zus_1, align 4
  %22 = load i32, ptr @ett_s7comm_szl_0131_0010_ber_zus_1, align 4
  %23 = tail call ptr @proto_tree_add_bitmask(ptr noundef %1, ptr noundef %0, i32 noundef %20, i32 noundef %21, i32 noundef %22, ptr noundef nonnull @s7comm_szl_0131_0010_ber_zus_1_fields, i32 noundef 0)
  %24 = add i32 %2, 7
  %25 = load i32, ptr @hf_s7comm_szl_0131_0010_ber_zus_2, align 4
  %26 = tail call ptr @proto_tree_add_item(ptr noundef %1, i32 noundef %25, ptr noundef %0, i32 noundef %24, i32 noundef 1, i32 noundef 0)
  %27 = add i32 %2, 8
  %28 = load i32, ptr @hf_s7comm_szl_0131_0010_typ_zus_1, align 4
  %29 = load i32, ptr @ett_s7comm_szl_0131_0010_typ_zus_1, align 4
  %30 = tail call ptr @proto_tree_add_bitmask(ptr noundef %1, ptr noundef %0, i32 noundef %27, i32 noundef %28, i32 noundef %29, ptr noundef nonnull @s7comm_szl_0131_0010_typ_zus_1_fields, i32 noundef 0)
  %31 = add i32 %2, 9
  %32 = load i32, ptr @hf_s7comm_szl_0131_0010_typ_zus_2, align 4
  %33 = tail call ptr @proto_tree_add_item(ptr noundef %1, i32 noundef %32, ptr noundef %0, i32 noundef %31, i32 noundef 1, i32 noundef 0)
  %34 = add i32 %2, 10
  %35 = load i32, ptr @hf_s7comm_szl_0131_0010_maxanz_arch, align 4
  %36 = tail call ptr @proto_tree_add_item(ptr noundef %1, i32 noundef %35, ptr noundef %0, i32 noundef %34, i32 noundef 2, i32 noundef 0)
  %37 = add i32 %2, 12
  %38 = load i32, ptr @hf_s7comm_szl_0131_0010_res, align 4
  %39 = tail call ptr @proto_tree_add_item(ptr noundef %1, i32 noundef %38, ptr noundef %0, i32 noundef %37, i32 noundef 28, i32 noundef 0)
  %40 = add i32 %2, 40
  ret i32 %40
}